; Function Attrs: mustprogress nofree nosync nounwind memory(readwrite, inaccessiblemem: none) uwtable
define noundef zeroext i1 @_ZNK32pxrInternal_v0_24__pxrReserved__18PcpPrimIndex_Graph44_ComputeStrengthOrderIndexMappingRecursivelyEmPmPSt6vectorImSaImEE(ptr nocapture noundef nonnull readonly align 8 dereferenceable(57) %0, i64 noundef %1, ptr nocapture noundef %2, ptr nocapture noundef readonly %3) local_unnamed_addr #10 align 2 {
  %5 = getelementptr inbounds nuw i8, ptr %0, i64 16
  %.pre = load i64, ptr %2, align 8
  br label %tailrecurse

tailrecurse:                                      ; preds = %24, %4
  %6 = phi i64 [ %.pre, %4 ], [ %27, %24 ]
  %accumulator.tr = phi i1 [ true, %4 ], [ %28, %24 ]
  %.tr27 = phi i64 [ %1, %4 ], [ %25, %24 ]
  %7 = load ptr, ptr %3, align 8
  %8 = getelementptr inbounds i64, ptr %7, i64 %.tr27
  store i64 %6, ptr %8, align 8
  %9 = load i64, ptr %2, align 8
  %10 = icmp eq i64 %.tr27, %9
  %11 = load ptr, ptr %5, align 8
  %12 = load ptr, ptr %11, align 8
  %13 = getelementptr inbounds %"struct.pxrInternal_v0_24__pxrReserved__::PcpPrimIndex_Graph::_Node", ptr %12, i64 %.tr27
  %14 = getelementptr inbounds i8, ptr %13, i64 28
  %15 = load i16, ptr %14, align 2
  %.not = icmp eq i16 %15, -1
  br i1 %.not, label %21, label %16

16:                                               ; preds = %tailrecurse
  %17 = zext i16 %15 to i64
  %18 = add i64 %9, 1
  store i64 %18, ptr %2, align 8
  %19 = tail call noundef zeroext i1 @_ZNK32pxrInternal_v0_24__pxrReserved__18PcpPrimIndex_Graph44_ComputeStrengthOrderIndexMappingRecursivelyEmPmPSt6vectorImSaImEE(ptr noundef nonnull align 8 dereferenceable(57) %0, i64 noundef %17, ptr noundef nonnull %2, ptr noundef nonnull %3)
  %20 = and i1 %10, %19
  br label %21

21:                                               ; preds = %16, %tailrecurse
  %.0.in = phi i1 [ %20, %16 ], [ %10, %tailrecurse ]
  %22 = getelementptr inbounds i8, ptr %13, i64 34
  %23 = load i16, ptr %22, align 2
  %.not26 = icmp eq i16 %23, -1
  br i1 %.not26, label %29, label %24

24:                                               ; preds = %21
  %25 = zext i16 %23 to i64
  %26 = load i64, ptr %2, align 8
  %27 = add i64 %26, 1
  store i64 %27, ptr %2, align 8
  %28 = and i1 %accumulator.tr, %.0.in
  br label %tailrecurse

29:                                               ; preds = %21
  %accumulator.ret.tr = and i1 %accumulator.tr, %.0.in
  ret i1 %accumulator.ret.tr
}